target datalayout = "e-m:e-p270:32:32-p271:32:32-p272:64:64-i64:64-i128:128-f80:128-n8:16:32:64-S128"
target triple = "x86_64-pc-linux-gnu"

@.str.34 = private unnamed_addr constant [17 x i8] c"PyErr_Occurred()\00", align 1
@.str.35 = private unnamed_addr constant [42 x i8] c"../cpython/Modules/_testcapi/exceptions.c\00", align 1
@.str.60 = private unnamed_addr constant [18 x i8] c"!PyErr_Occurred()\00", align 1
@__PRETTY_FUNCTION__.unicode_decode_get_start = private unnamed_addr constant [59 x i8] c"PyObject *unicode_decode_get_start(PyObject *, PyObject *)\00", align 1

; Function Attrs: nounwind uwtable
define internal ptr @unicode_decode_get_start(ptr noundef %0, ptr noundef %1) #0 {
  %3 = alloca ptr, align 8
  %4 = alloca ptr, align 8
  %5 = alloca ptr, align 8
  %6 = alloca i64, align 8
  %7 = alloca i32, align 4
  %8 = alloca i64, align 8
  store ptr %0, ptr %4, align 8, !tbaa !3
  store ptr %1, ptr %5, align 8, !tbaa !3
  call void @llvm.lifetime.start.p0(i64 8, ptr %6) #10
  %9 = load ptr, ptr %5, align 8, !tbaa !3
  %10 = call i32 @PyUnicodeDecodeError_GetStart(ptr noundef %9, ptr noundef %6)
  %11 = icmp slt i32 %10, 0
  br i1 %11, label %12, label %13

12:                                               ; preds = %2
  store ptr null, ptr %3, align 8
  store i32 1, ptr %7, align 4
  br label %37

13:                                               ; preds = %2
  br label %14

14:                                               ; preds = %13
  call void @llvm.lifetime.start.p0(i64 8, ptr %8) #10
  %15 = load i64, ptr %6, align 8, !tbaa !25
  store i64 %15, ptr %8, align 8, !tbaa !25
  %16 = load i64, ptr %8, align 8, !tbaa !25
  %17 = icmp eq i64 %16, -1
  br i1 %17, label %18, label %25

18:                                               ; preds = %14
  %19 = call ptr @PyErr_Occurred()
  %20 = icmp ne ptr %19, null
  br i1 %20, label %21, label %22

21:                                               ; preds = %18
  br label %24

22:                                               ; preds = %18
  call void @__assert_fail(ptr noundef @.str.34, ptr noundef @.str.35, i32 noundef 382, ptr noundef @__PRETTY_FUNCTION__.unicode_decode_get_start) #11
  unreachable

23:                                               ; No predecessors!
  br label %24

24:                                               ; preds = %23, %21
  store ptr null, ptr %3, align 8
  store i32 1, ptr %7, align 4
  br label %34

25:                                               ; preds = %14
  %26 = call ptr @PyErr_Occurred()
  %27 = icmp ne ptr %26, null
  br i1 %27, label %29, label %28

28:                                               ; preds = %25
  br label %31

29:                                               ; preds = %25
  call void @__assert_fail(ptr noundef @.str.60, ptr noundef @.str.35, i32 noundef 382, ptr noundef @__PRETTY_FUNCTION__.unicode_decode_get_start) #11
  unreachable

30:                                               ; No predecessors!
  br label %31

31:                                               ; preds = %30, %28
  %32 = load i64, ptr %8, align 8, !tbaa !25
  %33 = call ptr @PyLong_FromSsize_t(i64 noundef %32)
  store ptr %33, ptr %3, align 8
  store i32 1, ptr %7, align 4
  br label %34

34:                                               ; preds = %31, %24
  call void @llvm.lifetime.end.p0(i64 8, ptr %8) #10
  br label %37

35:                                               ; No predecessors!
  br label %36

36:                                               ; preds = %35
  store i32 0, ptr %7, align 4
  br label %37

37:                                               ; preds = %36, %34, %12
  call void @llvm.lifetime.end.p0(i64 8, ptr %6) #10
  %38 = load i32, ptr %7, align 4
  switch i32 %38, label %41 [
    i32 0, label %39
    i32 1, label %39
  ]

39:                                               ; preds = %37, %37
  %40 = load ptr, ptr %3, align 8
  ret ptr %40

41:                                               ; preds = %37
  unreachable
}